target datalayout = "e-m:e-p270:32:32-p271:32:32-p272:64:64-i64:64-i128:128-f80:128-n8:16:32:64-S128"
target triple = "x86_64-pc-linux-gnu"

%"class.std::__cxx11::basic_string" = type { %"struct.std::__cxx11::basic_string<char>::_Alloc_hider", i64, %union.anon }
%"struct.std::__cxx11::basic_string<char>::_Alloc_hider" = type { ptr }
%union.anon = type { i64, [8 x i8] }
%"class.std::vector.13" = type { %"struct.std::_Vector_base.14" }
%"struct.std::_Vector_base.14" = type { %"struct.std::_Vector_base<int, std::allocator<int>>::_Vector_impl" }
%"struct.std::_Vector_base<int, std::allocator<int>>::_Vector_impl" = type { %"struct.std::_Vector_base<int, std::allocator<int>>::_Vector_impl_data" }
%"struct.std::_Vector_base<int, std::allocator<int>>::_Vector_impl_data" = type { ptr, ptr, ptr }
%"struct.std::_Rb_tree_key_compare" = type { %"struct.std::less" }
%"struct.std::less" = type { i8 }
%"struct.std::_Rb_tree_header" = type { %"struct.std::_Rb_tree_node_base", i64 }
%"struct.std::_Rb_tree_node_base" = type { i32, ptr, ptr, ptr }
%class.colvardeps = type { ptr, %"class.std::__cxx11::basic_string", i32, %"class.std::vector.39", %"class.std::vector.44", %"class.std::vector.44" }
%"class.std::vector.39" = type { %"struct.std::_Vector_base.40" }
%"struct.std::_Vector_base.40" = type { %"struct.std::_Vector_base<colvardeps::feature_state, std::allocator<colvardeps::feature_state>>::_Vector_impl" }
%"struct.std::_Vector_base<colvardeps::feature_state, std::allocator<colvardeps::feature_state>>::_Vector_impl" = type { %"struct.std::_Vector_base<colvardeps::feature_state, std::allocator<colvardeps::feature_state>>::_Vector_impl_data" }
%"struct.std::_Vector_base<colvardeps::feature_state, std::allocator<colvardeps::feature_state>>::_Vector_impl_data" = type { ptr, ptr, ptr }
%"class.std::vector.44" = type { %"struct.std::_Vector_base.45" }
%"struct.std::_Vector_base.45" = type { %"struct.std::_Vector_base<colvardeps *, std::allocator<colvardeps *>>::_Vector_impl" }
%"struct.std::_Vector_base<colvardeps *, std::allocator<colvardeps *>>::_Vector_impl" = type { %"struct.std::_Vector_base<colvardeps *, std::allocator<colvardeps *>>::_Vector_impl_data" }
%"struct.std::_Vector_base<colvardeps *, std::allocator<colvardeps *>>::_Vector_impl_data" = type { ptr, ptr, ptr }
%"struct.colvardeps::feature_state" = type { i8, i8, i32, %"class.std::vector.13" }
%"class.std::vector.49" = type { %"struct.std::_Vector_base.50" }
%"struct.std::_Vector_base.50" = type { %"struct.std::_Vector_base<double, std::allocator<double>>::_Vector_impl" }
%"struct.std::_Vector_base<double, std::allocator<double>>::_Vector_impl" = type { %"struct.std::_Vector_base<double, std::allocator<double>>::_Vector_impl_data" }
%"struct.std::_Vector_base<double, std::allocator<double>>::_Vector_impl_data" = type { ptr, ptr, ptr }
%"class.colvarmodule::rvector" = type { double, double, double }
%"class.std::vector.83" = type { %"struct.std::_Vector_base.84" }
%"struct.std::_Vector_base.84" = type { %"struct.std::_Vector_base<colvarmodule::rvector, std::allocator<colvarmodule::rvector>>::_Vector_impl" }
%"struct.std::_Vector_base<colvarmodule::rvector, std::allocator<colvarmodule::rvector>>::_Vector_impl" = type { %"struct.std::_Vector_base<colvarmodule::rvector, std::allocator<colvarmodule::rvector>>::_Vector_impl_data" }
%"struct.std::_Vector_base<colvarmodule::rvector, std::allocator<colvarmodule::rvector>>::_Vector_impl_data" = type { ptr, ptr, ptr }
%"class.std::vector.88" = type { %"struct.std::_Vector_base.89" }
%"struct.std::_Vector_base.89" = type { %"struct.std::_Vector_base<unsigned long, std::allocator<unsigned long>>::_Vector_impl" }
%"struct.std::_Vector_base<unsigned long, std::allocator<unsigned long>>::_Vector_impl" = type { %"struct.std::_Vector_base<unsigned long, std::allocator<unsigned long>>::_Vector_impl_data" }
%"struct.std::_Vector_base<unsigned long, std::allocator<unsigned long>>::_Vector_impl_data" = type { ptr, ptr, ptr }
%class.colvarproxy = type { %class.colvarproxy_system, %class.colvarproxy_atoms.base, %class.colvarproxy_atom_groups, %class.colvarproxy_volmaps, %class.colvarproxy_smp, %class.colvarproxy_replicas, %class.colvarproxy_script.base, %class.colvarproxy_tcl, %class.colvarproxy_io, ptr, i8, %"class.std::__cxx11::basic_string", i8, i8, i8, i32, i64, %"class.std::__cxx11::basic_string", ptr }
%class.colvarproxy_system = type { ptr, %"class.std::__cxx11::basic_string", double, double, i8, double, double, double, double, double, i8, i32, %"class.colvarmodule::rvector", %"class.colvarmodule::rvector", %"class.colvarmodule::rvector", %"class.colvarmodule::rvector", %"class.colvarmodule::rvector", %"class.colvarmodule::rvector" }
%class.colvarproxy_atoms.base = type <{ ptr, %"class.std::vector.13", %"class.std::vector.88", %"class.std::vector.49", %"class.std::vector.49", %"class.std::vector.83", %"class.std::vector.83", %"class.std::vector.83", double, double, i32, i8, i8, i8 }>
%class.colvarproxy_atom_groups = type { ptr, %"class.std::vector.13", %"class.std::vector.88", %"class.std::vector.49", %"class.std::vector.49", %"class.std::vector.83", %"class.std::vector.83", %"class.std::vector.83", double, double }
%class.colvarproxy_volmaps = type { ptr, %"class.std::vector.13", %"class.std::vector.88", %"class.std::vector.49", %"class.std::vector.49", double, double }
%class.colvarproxy_smp = type { ptr, i8, ptr }
%class.colvarproxy_replicas = type { ptr }
%class.colvarproxy_script.base = type <{ ptr, ptr, i8 }>
%class.colvarproxy_tcl = type { ptr, ptr }
%class.colvarproxy_io = type { ptr, %"class.std::__cxx11::basic_string", %"class.std::__cxx11::basic_string", %"class.std::__cxx11::basic_string", i32, %"class.std::map.126", ptr, %"class.std::map.131", ptr }
%"class.std::map.126" = type { %"class.std::_Rb_tree.127" }
%"class.std::_Rb_tree.127" = type { %"struct.std::_Rb_tree<std::__cxx11::basic_string<char>, std::pair<const std::__cxx11::basic_string<char>, std::basic_istream<char> *>, std::_Select1st<std::pair<const std::__cxx11::basic_string<char>, std::basic_istream<char> *>>, std::less<std::__cxx11::basic_string<char>>>::_Rb_tree_impl" }
%"struct.std::_Rb_tree<std::__cxx11::basic_string<char>, std::pair<const std::__cxx11::basic_string<char>, std::basic_istream<char> *>, std::_Select1st<std::pair<const std::__cxx11::basic_string<char>, std::basic_istream<char> *>>, std::less<std::__cxx11::basic_string<char>>>::_Rb_tree_impl" = type { %"struct.std::_Rb_tree_key_compare", %"struct.std::_Rb_tree_header" }
%"class.std::map.131" = type { %"class.std::_Rb_tree.132" }
%"class.std::_Rb_tree.132" = type { %"struct.std::_Rb_tree<std::__cxx11::basic_string<char>, std::pair<const std::__cxx11::basic_string<char>, std::basic_ostream<char> *>, std::_Select1st<std::pair<const std::__cxx11::basic_string<char>, std::basic_ostream<char> *>>, std::less<std::__cxx11::basic_string<char>>>::_Rb_tree_impl" }
%"struct.std::_Rb_tree<std::__cxx11::basic_string<char>, std::pair<const std::__cxx11::basic_string<char>, std::basic_ostream<char> *>, std::_Select1st<std::pair<const std::__cxx11::basic_string<char>, std::basic_ostream<char> *>>, std::less<std::__cxx11::basic_string<char>>>::_Rb_tree_impl" = type { %"struct.std::_Rb_tree_key_compare", %"struct.std::_Rb_tree_header" }

@_ZN12colvarmodule5proxyE = external global ptr, align 8
@_ZN12colvarmodule2itE = external global i64, align 8
@_ZN12colvarmodule10it_restartE = external global i64, align 8

; Function Attrs: mustprogress nounwind uwtable
define linkonce_odr noundef nonnull align 8 dereferenceable(32) ptr @_ZNKSt6vectorIN10colvardeps13feature_stateESaIS1_EEixEm(ptr noundef nonnull align 8 dereferenceable(24) %0, i64 noundef %1) #1 comdat align 2 {
  %3 = alloca ptr, align 8
  %4 = alloca i64, align 8
  store ptr %0, ptr %3, align 8
  store i64 %1, ptr %4, align 8
  %5 = load ptr, ptr %3, align 8
  %6 = getelementptr inbounds %"struct.std::_Vector_base.40", ptr %5, i32 0, i32 0
  %7 = getelementptr inbounds %"struct.std::_Vector_base<colvardeps::feature_state, std::allocator<colvardeps::feature_state>>::_Vector_impl_data", ptr %6, i32 0, i32 0
  %8 = load ptr, ptr %7, align 8
  %9 = load i64, ptr %4, align 8
  %10 = getelementptr inbounds %"struct.colvardeps::feature_state", ptr %8, i64 %9
  ret ptr %10
}

; Function Attrs: mustprogress nounwind uwtable
define linkonce_odr noundef zeroext i1 @_ZNK10colvardeps10is_enabledEi(ptr noundef nonnull align 8 dereferenceable(120) %0, i32 noundef %1) #1 comdat align 2 {
  %3 = alloca ptr, align 8
  %4 = alloca i32, align 4
  store ptr %0, ptr %3, align 8
  store i32 %1, ptr %4, align 4
  %5 = load ptr, ptr %3, align 8
  %6 = getelementptr inbounds %class.colvardeps, ptr %5, i32 0, i32 3
  %7 = load i32, ptr %4, align 4
  %8 = sext i32 %7 to i64
  %9 = call noundef nonnull align 8 dereferenceable(32) ptr @_ZNKSt6vectorIN10colvardeps13feature_stateESaIS1_EEixEm(ptr noundef nonnull align 8 dereferenceable(24) %6, i64 noundef %8) #6
  %10 = getelementptr inbounds %"struct.colvardeps::feature_state", ptr %9, i32 0, i32 1
  %11 = load i8, ptr %10, align 1
  %12 = trunc i8 %11 to i1
  ret i1 %12
}

; Function Attrs: mustprogress nounwind uwtable
define linkonce_odr noundef zeroext i1 @_ZNK11colvarproxy21simulation_continuingEv(ptr noundef nonnull align 8 dereferenceable(1168) %0) #1 comdat align 2 {
  %2 = alloca ptr, align 8
  store ptr %0, ptr %2, align 8
  %3 = load ptr, ptr %2, align 8
  %4 = getelementptr inbounds %class.colvarproxy, ptr %3, i32 0, i32 13
  %5 = load i8, ptr %4, align 1
  %6 = trunc i8 %5 to i1
  ret i1 %6
}

; Function Attrs: mustprogress nounwind uwtable
define linkonce_odr noundef i64 @_ZN12colvarmodule13step_relativeEv() #1 comdat align 2 {
  %1 = load i64, ptr @_ZN12colvarmodule2itE, align 8
  %2 = load i64, ptr @_ZN12colvarmodule10it_restartE, align 8
  %3 = sub nsw i64 %1, %2
  ret i64 %3
}

; Function Attrs: mustprogress uwtable
define noundef zeroext i1 @_ZN10colvarbias19can_accumulate_dataEv(ptr noundef nonnull align 8 dereferenceable(312) %0) unnamed_addr #0 align 2 {
  %2 = alloca i1, align 1
  %3 = alloca ptr, align 8
  %4 = alloca ptr, align 8
  store ptr %0, ptr %3, align 8
  %5 = load ptr, ptr %3, align 8
  %6 = call noundef ptr @_ZN12colvarmodule4mainEv()
  %7 = load ptr, ptr @_ZN12colvarmodule5proxyE, align 8
  store ptr %7, ptr %4, align 8
  %8 = call noundef i64 @_ZN12colvarmodule13step_relativeEv()
  %9 = icmp sgt i64 %8, 0
  br i1 %9, label %10, label %13

10:                                               ; preds = %1
  %11 = load ptr, ptr %4, align 8
  %12 = call noundef zeroext i1 @_ZNK11colvarproxy21simulation_continuingEv(ptr noundef nonnull align 8 dereferenceable(1168) %11)
  br i1 %12, label %13, label %19

13:                                               ; preds = %10, %1
  %14 = load ptr, ptr %5, align 8
  %15 = getelementptr i8, ptr %14, i64 -32
  %16 = load i64, ptr %15, align 8
  %17 = getelementptr inbounds i8, ptr %5, i64 %16
  %18 = call noundef zeroext i1 @_ZNK10colvardeps10is_enabledEi(ptr noundef nonnull align 8 dereferenceable(120) %17, i32 noundef 2)
  br i1 %18, label %19, label %20

19:                                               ; preds = %13, %10
  store i1 true, ptr %2, align 1
  br label %21

20:                                               ; preds = %13
  store i1 false, ptr %2, align 1
  br label %21

21:                                               ; preds = %20, %19
  %22 = load i1, ptr %2, align 1
  ret i1 %22
}