; Function Attrs: mustprogress uwtable
define noundef zeroext i1 @_ZN10colvarbias19can_accumulate_dataEv(ptr nocapture noundef nonnull readonly align 8 dereferenceable(312) %0) unnamed_addr #0 align 2 {
  %2 = tail call noundef ptr @_ZN12colvarmodule4mainEv()
  %3 = load i64, ptr @_ZN12colvarmodule2itE, align 8
  %4 = load i64, ptr @_ZN12colvarmodule10it_restartE, align 8
  %5 = icmp sgt i64 %3, %4
  br i1 %5, label %6, label %11

6:                                                ; preds = %1
  %7 = load ptr, ptr @_ZN12colvarmodule5proxyE, align 8
  %8 = getelementptr inbounds i8, ptr %7, i64 1113
  %9 = load i8, ptr %8, align 1
  %10 = trunc i8 %9 to i1
  br i1 %10, label %11, label %21

11:                                               ; preds = %6, %1
  %12 = load ptr, ptr %0, align 8
  %13 = getelementptr i8, ptr %12, i64 -32
  %14 = load i64, ptr %13, align 8
  %15 = getelementptr inbounds i8, ptr %0, i64 %14
  %16 = getelementptr inbounds i8, ptr %15, i64 48
  %17 = load ptr, ptr %16, align 8
  %18 = getelementptr inbounds i8, ptr %17, i64 65
  %19 = load i8, ptr %18, align 1
  %20 = trunc i8 %19 to i1
  br label %21

21:                                               ; preds = %11, %6
  %.0 = phi i1 [ true, %6 ], [ %20, %11 ]
  ret i1 %.0
}